target datalayout = "e-m:e-p270:32:32-p271:32:32-p272:64:64-i64:64-i128:128-f80:128-n8:16:32:64-S128"
target triple = "x86_64-pc-linux-gnu"

%struct.CordRep = type { %struct.Generic, %union.ConcatOrFunc }
%struct.Generic = type { i8, i8, i8, i8, i64 }
%union.ConcatOrFunc = type { %struct.Concatenation }
%struct.Concatenation = type { ptr, ptr }
%struct.Function = type { ptr, ptr }

@stdout = external global ptr, align 8
@.str.7 = private unnamed_addr constant [3 x i8] c"  \00", align 1
@.str.8 = private unnamed_addr constant [5 x i8] c"NIL\0A\00", align 1
@.str.9 = private unnamed_addr constant [4 x i8] c"...\00", align 1
@.str.10 = private unnamed_addr constant [40 x i8] c"Concatenation: %p (len: %d, depth: %d)\0A\00", align 1
@.str.11 = private unnamed_addr constant [13 x i8] c"(Substring) \00", align 1
@.str.12 = private unnamed_addr constant [25 x i8] c"Function: %p (len: %d): \00", align 1

; Function Attrs: inlinehint nounwind uwtable
define available_externally i32 @putchar(i32 noundef %0) #8 {
  %2 = alloca i32, align 4
  store i32 %0, ptr %2, align 4, !tbaa !11
  %3 = load i32, ptr %2, align 4, !tbaa !11
  %4 = load ptr, ptr @stdout, align 8, !tbaa !9
  %5 = call i32 @putc(i32 noundef %3, ptr noundef %4)
  ret i32 %5
}

; Function Attrs: nounwind uwtable
define internal void @CORD_dump_inner(ptr noundef %0, i32 noundef %1) #0 {
  %3 = alloca ptr, align 8
  %4 = alloca i32, align 4
  %5 = alloca i64, align 8
  %6 = alloca ptr, align 8
  %7 = alloca ptr, align 8
  %8 = alloca i64, align 8
  store ptr %0, ptr %3, align 8, !tbaa !7
  store i32 %1, ptr %4, align 4, !tbaa !11
  call void @llvm.lifetime.start.p0(i64 8, ptr %5) #9
  store i64 0, ptr %5, align 8, !tbaa !13
  br label %9

9:                                                ; preds = %17, %2
  %10 = load i64, ptr %5, align 8, !tbaa !13
  %11 = load i32, ptr %4, align 4, !tbaa !11
  %12 = zext i32 %11 to i64
  %13 = icmp ult i64 %10, %12
  br i1 %13, label %14, label %20

14:                                               ; preds = %9
  %15 = load ptr, ptr @stdout, align 8, !tbaa !9
  %16 = call i32 @fputs(ptr noundef @.str.7, ptr noundef %15)
  br label %17

17:                                               ; preds = %14
  %18 = load i64, ptr %5, align 8, !tbaa !13
  %19 = add i64 %18, 1
  store i64 %19, ptr %5, align 8, !tbaa !13
  br label %9, !llvm.loop !15

20:                                               ; preds = %9
  %21 = load ptr, ptr %3, align 8, !tbaa !7
  %22 = icmp eq ptr %21, null
  br i1 %22, label %23, label %26

23:                                               ; preds = %20
  %24 = load ptr, ptr @stdout, align 8, !tbaa !9
  %25 = call i32 @fputs(ptr noundef @.str.8, ptr noundef %24)
  br label %151

26:                                               ; preds = %20
  %27 = load ptr, ptr %3, align 8, !tbaa !7
  %28 = load i8, ptr %27, align 1, !tbaa !17
  %29 = sext i8 %28 to i32
  %30 = icmp ne i32 %29, 0
  br i1 %30, label %31, label %65

31:                                               ; preds = %26
  store i64 0, ptr %5, align 8, !tbaa !13
  br label %32

32:                                               ; preds = %50, %31
  %33 = load i64, ptr %5, align 8, !tbaa !13
  %34 = icmp ule i64 %33, 31
  br i1 %34, label %35, label %53

35:                                               ; preds = %32
  %36 = load ptr, ptr %3, align 8, !tbaa !7
  %37 = load i64, ptr %5, align 8, !tbaa !13
  %38 = getelementptr inbounds nuw i8, ptr %36, i64 %37
  %39 = load i8, ptr %38, align 1, !tbaa !17
  %40 = sext i8 %39 to i32
  %41 = icmp eq i32 %40, 0
  br i1 %41, label %42, label %43

42:                                               ; preds = %35
  br label %53

43:                                               ; preds = %35
  %44 = load ptr, ptr %3, align 8, !tbaa !7
  %45 = load i64, ptr %5, align 8, !tbaa !13
  %46 = getelementptr inbounds nuw i8, ptr %44, i64 %45
  %47 = load i8, ptr %46, align 1, !tbaa !17
  %48 = sext i8 %47 to i32
  %49 = call i32 @putchar(i32 noundef %48)
  br label %50

50:                                               ; preds = %43
  %51 = load i64, ptr %5, align 8, !tbaa !13
  %52 = add i64 %51, 1
  store i64 %52, ptr %5, align 8, !tbaa !13
  br label %32, !llvm.loop !18

53:                                               ; preds = %42, %32
  %54 = load ptr, ptr %3, align 8, !tbaa !7
  %55 = load i64, ptr %5, align 8, !tbaa !13
  %56 = getelementptr inbounds nuw i8, ptr %54, i64 %55
  %57 = load i8, ptr %56, align 1, !tbaa !17
  %58 = sext i8 %57 to i32
  %59 = icmp ne i32 %58, 0
  br i1 %59, label %60, label %63

60:                                               ; preds = %53
  %61 = load ptr, ptr @stdout, align 8, !tbaa !9
  %62 = call i32 @fputs(ptr noundef @.str.9, ptr noundef %61)
  br label %63

63:                                               ; preds = %60, %53
  %64 = call i32 @putchar(i32 noundef 10)
  br label %150

65:                                               ; preds = %26
  %66 = load ptr, ptr %3, align 8, !tbaa !7
  %67 = getelementptr inbounds nuw %struct.CordRep, ptr %66, i32 0, i32 0
  %68 = getelementptr inbounds nuw %struct.Generic, ptr %67, i32 0, i32 1
  %69 = load i8, ptr %68, align 1, !tbaa !19
  %70 = sext i8 %69 to i32
  %71 = icmp eq i32 %70, 1
  br i1 %71, label %72, label %97

72:                                               ; preds = %65
  call void @llvm.lifetime.start.p0(i64 8, ptr %6) #9
  %73 = load ptr, ptr %3, align 8, !tbaa !7
  %74 = getelementptr inbounds nuw %struct.CordRep, ptr %73, i32 0, i32 1
  store ptr %74, ptr %6, align 8, !tbaa !22
  %75 = load ptr, ptr %3, align 8, !tbaa !7
  %76 = load ptr, ptr %3, align 8, !tbaa !7
  %77 = getelementptr inbounds nuw %struct.CordRep, ptr %76, i32 0, i32 0
  %78 = getelementptr inbounds nuw %struct.Generic, ptr %77, i32 0, i32 4
  %79 = load i64, ptr %78, align 8, !tbaa !24
  %80 = trunc i64 %79 to i32
  %81 = load ptr, ptr %3, align 8, !tbaa !7
  %82 = getelementptr inbounds nuw %struct.CordRep, ptr %81, i32 0, i32 0
  %83 = getelementptr inbounds nuw %struct.Generic, ptr %82, i32 0, i32 2
  %84 = load i8, ptr %83, align 2, !tbaa !25
  %85 = sext i8 %84 to i32
  %86 = call i32 (ptr, ...) @printf(ptr noundef @.str.10, ptr noundef %75, i32 noundef %80, i32 noundef %85)
  %87 = load ptr, ptr %6, align 8, !tbaa !22
  %88 = getelementptr inbounds nuw %struct.Concatenation, ptr %87, i32 0, i32 0
  %89 = load ptr, ptr %88, align 8, !tbaa !26
  %90 = load i32, ptr %4, align 4, !tbaa !11
  %91 = add i32 %90, 1
  call void @CORD_dump_inner(ptr noundef %89, i32 noundef %91)
  %92 = load ptr, ptr %6, align 8, !tbaa !22
  %93 = getelementptr inbounds nuw %struct.Concatenation, ptr %92, i32 0, i32 1
  %94 = load ptr, ptr %93, align 8, !tbaa !28
  %95 = load i32, ptr %4, align 4, !tbaa !11
  %96 = add i32 %95, 1
  call void @CORD_dump_inner(ptr noundef %94, i32 noundef %96)
  call void @llvm.lifetime.end.p0(i64 8, ptr %6) #9
  br label %149

97:                                               ; preds = %65
  call void @llvm.lifetime.start.p0(i64 8, ptr %7) #9
  %98 = load ptr, ptr %3, align 8, !tbaa !7
  %99 = getelementptr inbounds nuw %struct.CordRep, ptr %98, i32 0, i32 1
  store ptr %99, ptr %7, align 8, !tbaa !29
  call void @llvm.lifetime.start.p0(i64 8, ptr %8) #9
  %100 = load ptr, ptr %3, align 8, !tbaa !7
  %101 = getelementptr inbounds nuw %struct.CordRep, ptr %100, i32 0, i32 0
  %102 = getelementptr inbounds nuw %struct.Generic, ptr %101, i32 0, i32 4
  %103 = load i64, ptr %102, align 8, !tbaa !24
  store i64 %103, ptr %8, align 8, !tbaa !13
  %104 = load ptr, ptr %3, align 8, !tbaa !7
  %105 = getelementptr inbounds nuw %struct.CordRep, ptr %104, i32 0, i32 0
  %106 = getelementptr inbounds nuw %struct.Generic, ptr %105, i32 0, i32 1
  %107 = load i8, ptr %106, align 1, !tbaa !19
  %108 = sext i8 %107 to i32
  %109 = icmp eq i32 %108, 6
  br i1 %109, label %110, label %112

110:                                              ; preds = %97
  %111 = call i32 (ptr, ...) @printf(ptr noundef @.str.11)
  br label %112

112:                                              ; preds = %110, %97
  %113 = load ptr, ptr %3, align 8, !tbaa !7
  %114 = load i64, ptr %8, align 8, !tbaa !13
  %115 = trunc i64 %114 to i32
  %116 = call i32 (ptr, ...) @printf(ptr noundef @.str.12, ptr noundef %113, i32 noundef %115)
  store i64 0, ptr %5, align 8, !tbaa !13
  br label %117

117:                                              ; preds = %137, %112
  %118 = load i64, ptr %5, align 8, !tbaa !13
  %119 = icmp ult i64 %118, 20
  br i1 %119, label %120, label %124

120:                                              ; preds = %117
  %121 = load i64, ptr %5, align 8, !tbaa !13
  %122 = load i64, ptr %8, align 8, !tbaa !13
  %123 = icmp ult i64 %121, %122
  br label %124

124:                                              ; preds = %120, %117
  %125 = phi i1 [ false, %117 ], [ %123, %120 ]
  br i1 %125, label %126, label %140

126:                                              ; preds = %124
  %127 = load ptr, ptr %7, align 8, !tbaa !29
  %128 = getelementptr inbounds nuw %struct.Function, ptr %127, i32 0, i32 0
  %129 = load ptr, ptr %128, align 8, !tbaa !31
  %130 = load i64, ptr %5, align 8, !tbaa !13
  %131 = load ptr, ptr %7, align 8, !tbaa !29
  %132 = getelementptr inbounds nuw %struct.Function, ptr %131, i32 0, i32 1
  %133 = load ptr, ptr %132, align 8, !tbaa !33
  %134 = call signext i8 %129(i64 noundef %130, ptr noundef %133)
  %135 = sext i8 %134 to i32
  %136 = call i32 @putchar(i32 noundef %135)
  br label %137

137:                                              ; preds = %126
  %138 = load i64, ptr %5, align 8, !tbaa !13
  %139 = add i64 %138, 1
  store i64 %139, ptr %5, align 8, !tbaa !13
  br label %117, !llvm.loop !34

140:                                              ; preds = %124
  %141 = load i64, ptr %5, align 8, !tbaa !13
  %142 = load i64, ptr %8, align 8, !tbaa !13
  %143 = icmp ult i64 %141, %142
  br i1 %143, label %144, label %147

144:                                              ; preds = %140
  %145 = load ptr, ptr @stdout, align 8, !tbaa !9
  %146 = call i32 @fputs(ptr noundef @.str.9, ptr noundef %145)
  br label %147

147:                                              ; preds = %144, %140
  %148 = call i32 @putchar(i32 noundef 10)
  call void @llvm.lifetime.end.p0(i64 8, ptr %8) #9
  call void @llvm.lifetime.end.p0(i64 8, ptr %7) #9
  br label %149

149:                                              ; preds = %147, %72
  br label %150

150:                                              ; preds = %149, %63
  br label %151

151:                                              ; preds = %150, %23
  call void @llvm.lifetime.end.p0(i64 8, ptr %5) #9
  ret void
}