; Function Attrs: nounwind uwtable
define internal fastcc void @CORD_dump_inner(ptr noundef %0, i32 noundef %1) unnamed_addr #2 {
  br label %tailrecurse

tailrecurse:                                      ; preds = %33, %2
  %.tr = phi ptr [ %0, %2 ], [ %42, %33 ]
  %.tr39 = phi i32 [ %1, %2 ], [ %40, %33 ]
  %3 = zext i32 %.tr39 to i64
  %.not49 = icmp eq i32 %.tr39, 0
  br i1 %.not49, label %._crit_edge, label %.lr.ph

.lr.ph:                                           ; preds = %tailrecurse, %.lr.ph
  %.043 = phi i64 [ %6, %.lr.ph ], [ 0, %tailrecurse ]
  %4 = load ptr, ptr @stdout, align 8, !tbaa !7
  %5 = tail call i64 @fwrite(ptr nonnull @.str.7, i64 2, i64 1, ptr %4)
  %6 = add nuw nsw i64 %.043, 1
  %exitcond.not = icmp eq i64 %6, %3
  br i1 %exitcond.not, label %._crit_edge, label %.lr.ph, !llvm.loop !9

._crit_edge:                                      ; preds = %.lr.ph, %tailrecurse
  %7 = icmp eq ptr %.tr, null
  br i1 %7, label %8, label %11

8:                                                ; preds = %._crit_edge
  %9 = load ptr, ptr @stdout, align 8, !tbaa !7
  %10 = tail call i64 @fwrite(ptr nonnull @.str.8, i64 4, i64 1, ptr %9)
  br label %63

11:                                               ; preds = %._crit_edge
  %12 = load i8, ptr %.tr, align 1, !tbaa !11
  %.not = icmp eq i8 %12, 0
  br i1 %.not, label %27, label %.preheader

.preheader:                                       ; preds = %11, %16
  %.144 = phi i64 [ %20, %16 ], [ 0, %11 ]
  %13 = getelementptr inbounds nuw i8, ptr %.tr, i64 %.144
  %14 = load i8, ptr %13, align 1, !tbaa !11
  %15 = icmp eq i8 %14, 0
  br i1 %15, label %split.thread, label %16

16:                                               ; preds = %.preheader
  %17 = sext i8 %14 to i32
  %18 = load ptr, ptr @stdout, align 8, !tbaa !7
  %19 = tail call i32 @putc(i32 noundef %17, ptr noundef %18)
  %20 = add nuw nsw i64 %.144, 1
  %exitcond55.not = icmp eq i64 %20, 32
  br i1 %exitcond55.not, label %split, label %.preheader, !llvm.loop !12

split:                                            ; preds = %16
  %.phi.trans.insert = getelementptr inbounds nuw i8, ptr %.tr, i64 32
  %.pre = load i8, ptr %.phi.trans.insert, align 1, !tbaa !11
  %21 = icmp eq i8 %.pre, 0
  br i1 %21, label %split.thread, label %22

22:                                               ; preds = %split
  %23 = load ptr, ptr @stdout, align 8, !tbaa !7
  %24 = tail call i64 @fwrite(ptr nonnull @.str.9, i64 3, i64 1, ptr %23)
  br label %split.thread

split.thread:                                     ; preds = %.preheader, %22, %split
  %25 = load ptr, ptr @stdout, align 8, !tbaa !7
  %26 = tail call i32 @putc(i32 noundef 10, ptr noundef %25)
  br label %63

27:                                               ; preds = %11
  %28 = getelementptr inbounds nuw i8, ptr %.tr, i64 1
  %29 = load i8, ptr %28, align 1, !tbaa !13
  %30 = getelementptr inbounds nuw i8, ptr %.tr, i64 16
  %31 = getelementptr inbounds nuw i8, ptr %.tr, i64 8
  %32 = load i64, ptr %31, align 8, !tbaa !17
  switch i8 %29, label %.loopexit [
    i8 1, label %33
    i8 6, label %43
  ]

33:                                               ; preds = %27
  %34 = trunc i64 %32 to i32
  %35 = getelementptr inbounds nuw i8, ptr %.tr, i64 2
  %36 = load i8, ptr %35, align 2, !tbaa !18
  %37 = sext i8 %36 to i32
  %38 = tail call i32 (ptr, ...) @printf(ptr noundef nonnull dereferenceable(1) @.str.10, ptr noundef nonnull %.tr, i32 noundef %34, i32 noundef %37)
  %39 = load ptr, ptr %30, align 8, !tbaa !19
  %40 = add i32 %.tr39, 1
  tail call fastcc void @CORD_dump_inner(ptr noundef %39, i32 noundef %40)
  %41 = getelementptr inbounds nuw i8, ptr %.tr, i64 24
  %42 = load ptr, ptr %41, align 8, !tbaa !22
  br label %tailrecurse

43:                                               ; preds = %27
  %44 = tail call i32 (ptr, ...) @printf(ptr noundef nonnull dereferenceable(1) @.str.11)
  br label %.loopexit

.loopexit:                                        ; preds = %27, %43
  %45 = trunc i64 %32 to i32
  %46 = tail call i32 (ptr, ...) @printf(ptr noundef nonnull dereferenceable(1) @.str.12, ptr noundef nonnull %.tr, i32 noundef %45)
  %.not50 = icmp eq i64 %32, 0
  br i1 %.not50, label %._crit_edge48.thread, label %.lr.ph47

.lr.ph47:                                         ; preds = %.loopexit
  %47 = getelementptr inbounds nuw i8, ptr %.tr, i64 24
  %48 = add i64 %32, -1
  %umin = tail call i64 @llvm.umin.i64(i64 %48, i64 19)
  br label %49

49:                                               ; preds = %.lr.ph47, %49
  %.245 = phi i64 [ 0, %.lr.ph47 ], [ %56, %49 ]
  %50 = load ptr, ptr %30, align 8, !tbaa !23
  %51 = load ptr, ptr %47, align 8, !tbaa !25
  %52 = tail call signext i8 %50(i64 noundef %.245, ptr noundef %51) #17
  %53 = sext i8 %52 to i32
  %54 = load ptr, ptr @stdout, align 8, !tbaa !7
  %55 = tail call i32 @putc(i32 noundef %53, ptr noundef %54)
  %56 = add nuw nsw i64 %.245, 1
  %exitcond56.not = icmp eq i64 %.245, %umin
  br i1 %exitcond56.not, label %._crit_edge48, label %49, !llvm.loop !26

._crit_edge48:                                    ; preds = %49
  %57 = icmp ult i64 %56, %32
  br i1 %57, label %58, label %._crit_edge48.thread

58:                                               ; preds = %._crit_edge48
  %59 = load ptr, ptr @stdout, align 8, !tbaa !7
  %60 = tail call i64 @fwrite(ptr nonnull @.str.9, i64 3, i64 1, ptr %59)
  br label %._crit_edge48.thread

._crit_edge48.thread:                             ; preds = %.loopexit, %58, %._crit_edge48
  %61 = load ptr, ptr @stdout, align 8, !tbaa !7
  %62 = tail call i32 @putc(i32 noundef 10, ptr noundef %61)
  br label %63

63:                                               ; preds = %split.thread, %._crit_edge48.thread, %8
  ret void
}